; Function Attrs: mustprogress nofree norecurse nosync nounwind willreturn memory(read, inaccessiblemem: none) uwtable
define noundef ptr @_ZN6google8protobuf8internal18GenericTypeHandlerINS0_7MessageEE8GetArenaEPS3_(ptr nocapture noundef readonly %value) local_unnamed_addr #14 align 2 {
entry:
  %_internal_metadata_.i = getelementptr inbounds i8, ptr %value, i64 8
  %0 = load i64, ptr %_internal_metadata_.i, align 8
  %and.i.i = and i64 %0, 1
  %tobool.i.not.i = icmp eq i64 %and.i.i, 0
  br i1 %tobool.i.not.i, label %if.else.i.i, label %if.then.i.i

if.then.i.i:                                      ; preds = %entry
  %and.i1.i = and i64 %0, -2
  %1 = inttoptr i64 %and.i1.i to ptr
  %2 = load ptr, ptr %1, align 8
  br label %_ZNK6google8protobuf11MessageLite8GetArenaEv.exit

if.else.i.i:                                      ; preds = %entry
  %3 = inttoptr i64 %0 to ptr
  br label %_ZNK6google8protobuf11MessageLite8GetArenaEv.exit

_ZNK6google8protobuf11MessageLite8GetArenaEv.exit: ; preds = %if.then.i.i, %if.else.i.i
  %retval.i.0.i = phi ptr [ %2, %if.then.i.i ], [ %3, %if.else.i.i ]
  ret ptr %retval.i.0.i
}